(i__main__
LogFile
p0
(dp1
S'_installed_files'
p2
(dp3
S'../../InnerDetector/InDetG4/SCT_G4_SD/genConf/SCT_G4_SD'
p4
(dp5
S'../../../InnerDetector/InDetG4/SCT_G4_SD/genConf/SCT_G4_SD/SCT_G4_SDConf.py'
p6
S'../../../../InstallArea/python/SCT_G4_SD/SCT_G4_SDConf.py'
p7
ssS'../../../../../../../../../../../../cvmfs/atlas.cern.ch/repo/sw/software/x86_64-slc6-gcc49-opt/20.20.10/GAUDI/v26r2p3-lcg81f/GaudiPolicy/cmt/fragments/__init__.py'
p8
S'../../../../InstallArea/python/SCT_G4_SD/__init__.py'
p9
sS'../../../InnerDetector/InDetG4/SCT_G4_SD/x86_64-slc6-gcc49-opt/libSCT_G4_SD.so'
p10
S'../../../../InstallArea/x86_64-slc6-gcc49-opt/lib/libSCT_G4_SD.so'
p11
sS'../../../../../../../../../../cvmfs/atlas.cern.ch/repo/sw/software/x86_64-slc6-gcc49-opt/20.20.10/GAUDI/v26r2p3-lcg81f/GaudiPolicy/cmt/fragments/__init__.py'
p12
S'../../../../InstallArea/python/SCT_G4_SD/__init__.py'
p13
sS'../../../InnerDetector/InDetG4/SCT_G4_SD/x86_64-slc6-gcc49-opt/libSCT_G4_SD.so.debug'
p14
S'../../../../InstallArea/x86_64-slc6-gcc49-opt/lib/libSCT_G4_SD.so.debug'
p15
sS'../../../../../../../../../cvmfs/atlas.cern.ch/repo/sw/software/x86_64-slc6-gcc49-opt/20.20.10/GAUDI/v26r2p3-lcg81f/GaudiPolicy/cmt/fragments/__init__.py'
p16
S'../../../../InstallArea/python/SCT_G4_SD/__init__.py'
p17
ssb.