(i__main__
LogFile
p0
(dp1
S'_installed_files'
p2
(dp3
S'../../InnerDetector/InDetDetDescr/InDetTrackingGeometryXML/genConf/InDetTrackingGeometryXML'
p4
(dp5
S'../../../InnerDetector/InDetDetDescr/InDetTrackingGeometryXML/genConf/InDetTrackingGeometryXML/InDetTrackingGeometryXMLConf.py'
p6
S'../../../../InstallArea/python/InDetTrackingGeometryXML/InDetTrackingGeometryXMLConf.py'
p7
ssS'../../../../../../../../../../../../cvmfs/atlas.cern.ch/repo/sw/software/x86_64-slc6-gcc49-opt/20.20.10/GAUDI/v26r2p3-lcg81f/GaudiPolicy/cmt/fragments/__init__.py'
p8
S'../../../../InstallArea/python/InDetTrackingGeometryXML/__init__.py'
p9
sS'../../../InnerDetector/InDetDetDescr/InDetTrackingGeometryXML/x86_64-slc6-gcc49-opt/libInDetTrackingGeometryXML.so.debug'
p10
S'../../../../InstallArea/x86_64-slc6-gcc49-opt/lib/libInDetTrackingGeometryXML.so.debug'
p11
sS'../../../InnerDetector/InDetDetDescr/InDetTrackingGeometryXML/x86_64-slc6-gcc49-opt/libInDetTrackingGeometryXML.so'
p12
S'../../../../InstallArea/x86_64-slc6-gcc49-opt/lib/libInDetTrackingGeometryXML.so'
p13
sS'../../../../../../../../../cvmfs/atlas.cern.ch/repo/sw/software/x86_64-slc6-gcc49-opt/20.20.10/GAUDI/v26r2p3-lcg81f/GaudiPolicy/cmt/fragments/__init__.py'
p14
S'../../../../InstallArea/python/InDetTrackingGeometryXML/__init__.py'
p15
ssb.