(i__main__
LogFile
p0
(dp1
S'_installed_files'
p2
(dp3
S'../../../InnerDetector/InDetDetDescr/InDetReadoutGeometry/x86_64-slc6-gcc49-opt/libInDetReadoutGeometry.so.debug'
p4
S'../../../../InstallArea/x86_64-slc6-gcc49-opt/lib/libInDetReadoutGeometry.so.debug'
p5
sS'../../../InnerDetector/InDetDetDescr/InDetReadoutGeometry/x86_64-slc6-gcc49-opt/libInDetReadoutGeometry.so'
p6
S'../../../../InstallArea/x86_64-slc6-gcc49-opt/lib/libInDetReadoutGeometry.so'
p7
ssb.