(i__main__
LogFile
p0
(dp1
S'_installed_files'
p2
(dp3
S'../../../InnerDetector/InDetDigitization/FastSiDigitization/x86_64-slc6-gcc49-opt/libFastSiDigitization.so.debug'
p4
S'../../../../InstallArea/x86_64-slc6-gcc49-opt/lib/libFastSiDigitization.so.debug'
p5
sS'../../../InnerDetector/InDetDigitization/FastSiDigitization/x86_64-slc6-gcc49-opt/libFastSiDigitization.so'
p6
S'../../../../InstallArea/x86_64-slc6-gcc49-opt/lib/libFastSiDigitization.so'
p7
sS'../../../../../../../../../../../../cvmfs/atlas.cern.ch/repo/sw/software/x86_64-slc6-gcc49-opt/20.20.10/GAUDI/v26r2p3-lcg81f/GaudiPolicy/cmt/fragments/__init__.py'
p8
S'../../../../InstallArea/python/FastSiDigitization/__init__.py'
p9
sS'../../InnerDetector/InDetDigitization/FastSiDigitization/genConf/FastSiDigitization'
p10
(dp11
S'../../../InnerDetector/InDetDigitization/FastSiDigitization/genConf/FastSiDigitization/FastSiDigitizationConf.py'
p12
S'../../../../InstallArea/python/FastSiDigitization/FastSiDigitizationConf.py'
p13
ssS'../../../../../../../../../../cvmfs/atlas.cern.ch/repo/sw/software/x86_64-slc6-gcc49-opt/20.20.10/GAUDI/v26r2p3-lcg81f/GaudiPolicy/cmt/fragments/__init__.py'
p14
S'../../../../InstallArea/python/FastSiDigitization/__init__.py'
p15
sS'../../../../../../../../../cvmfs/atlas.cern.ch/repo/sw/software/x86_64-slc6-gcc49-opt/20.20.10/GAUDI/v26r2p3-lcg81f/GaudiPolicy/cmt/fragments/__init__.py'
p16
S'../../../../InstallArea/python/FastSiDigitization/__init__.py'
p17
ssb.