(i__main__
LogFile
p0
(dp1
S'_installed_files'
p2
(dp3
S'../../InnerDetector/InDetDigitization/FastSiDigitization/genConf/FastSiDigitization'
p4
(dp5
S'../../../InnerDetector/InDetDigitization/FastSiDigitization/genConf/FastSiDigitization/FastSiDigitizationConf.py'
p6
S'../../../../InstallArea/python/FastSiDigitization/FastSiDigitizationConf.py'
p7
ssS'../../../InnerDetector/InDetDigitization/FastSiDigitization/x86_64-slc6-gcc49-opt/libFastSiDigitization.so.debug'
p8
S'../../../../InstallArea/x86_64-slc6-gcc49-opt/lib/libFastSiDigitization.so.debug'
p9
sS'../../../../../../../../../../../../cvmfs/atlas.cern.ch/repo/sw/software/x86_64-slc6-gcc49-opt/20.20.10/GAUDI/v26r2p3-lcg81f/GaudiPolicy/cmt/fragments/__init__.py'
p10
S'../../../../InstallArea/python/FastSiDigitization/__init__.py'
p11
sS'../../../InnerDetector/InDetDigitization/FastSiDigitization/x86_64-slc6-gcc49-opt/libFastSiDigitization.so'
p12
S'../../../../InstallArea/x86_64-slc6-gcc49-opt/lib/libFastSiDigitization.so'
p13
sS'../../../../../../../../../cvmfs/atlas.cern.ch/repo/sw/software/x86_64-slc6-gcc49-opt/20.20.10/GAUDI/v26r2p3-lcg81f/GaudiPolicy/cmt/fragments/__init__.py'
p14
S'../../../../InstallArea/python/FastSiDigitization/__init__.py'
p15
ssb.