(i__main__
LogFile
p0
(dp1
S'_installed_files'
p2
(dp3
S'../../InnerDetector/InDetRecAlgs/TripletTrackFinder/genConf/TripletTrackFinder'
p4
(dp5
S'../../../InnerDetector/InDetRecAlgs/TripletTrackFinder/genConf/TripletTrackFinder/TripletTrackFinderConf.py'
p6
S'../../../../InstallArea/python/TripletTrackFinder/TripletTrackFinderConf.py'
p7
ssS'../../../InnerDetector/InDetRecAlgs/TripletTrackFinder/x86_64-slc6-gcc49-opt/libTripletTrackFinder.so.debug'
p8
S'../../../../InstallArea/x86_64-slc6-gcc49-opt/lib/libTripletTrackFinder.so.debug'
p9
sS'../../../InnerDetector/InDetRecAlgs/TripletTrackFinder/x86_64-slc6-gcc49-opt/libTripletTrackFinder.so'
p10
S'../../../../InstallArea/x86_64-slc6-gcc49-opt/lib/libTripletTrackFinder.so'
p11
sS'../../../../../../../../../../cvmfs/atlas.cern.ch/repo/sw/software/x86_64-slc6-gcc49-opt/20.20.10/GAUDI/v26r2p3-lcg81f/GaudiPolicy/cmt/fragments/__init__.py'
p12
S'../../../../InstallArea/python/TripletTrackFinder/__init__.py'
p13
ssb.