(i__main__
LogFile
p0
(dp1
S'_installed_files'
p2
(dp3
S'../../InnerDetector/InDetRecTools/SiClusterizationTool/genConf/SiClusterizationTool'
p4
(dp5
S'../../../InnerDetector/InDetRecTools/SiClusterizationTool/genConf/SiClusterizationTool/SiClusterizationToolConf.py'
p6
S'../../../../InstallArea/python/SiClusterizationTool/SiClusterizationToolConf.py'
p7
ssS'../../../../../../../../../../cvmfs/atlas.cern.ch/repo/sw/software/x86_64-slc6-gcc49-opt/20.20.10/GAUDI/v26r2p3-lcg81f/GaudiPolicy/cmt/fragments/__init__.py'
p8
S'../../../../InstallArea/python/SiClusterizationTool/__init__.py'
p9
sS'../../../../../../../../../cvmfs/atlas.cern.ch/repo/sw/software/x86_64-slc6-gcc49-opt/20.20.10/GAUDI/v26r2p3-lcg81f/GaudiPolicy/cmt/fragments/__init__.py'
p10
S'../../../../InstallArea/python/SiClusterizationTool/__init__.py'
p11
sS'../../../../../../../../../../../../cvmfs/atlas.cern.ch/repo/sw/software/x86_64-slc6-gcc49-opt/20.20.10/GAUDI/v26r2p3-lcg81f/GaudiPolicy/cmt/fragments/__init__.py'
p12
S'../../../../InstallArea/python/SiClusterizationTool/__init__.py'
p13
ssb.