(i__main__
LogFile
p0
(dp1
S'_installed_files'
p2
(dp3
S'../../../TripletTrackFinder/InnerDetector/InDetRecAlgs/TripletTrackFinder/x86_64-slc6-gcc49-opt/libTripletTrackFinder.so'
p4
S'../../../../../InstallArea/x86_64-slc6-gcc49-opt/lib/libTripletTrackFinder.so'
p5
sS'../../InnerDetector/InDetRecAlgs/TripletTrackFinder/genConf/TripletTrackFinder'
p6
(dp7
S'../../../InnerDetector/InDetRecAlgs/TripletTrackFinder/genConf/TripletTrackFinder/TripletTrackFinderConf.py'
p8
S'../../../../InstallArea/python/TripletTrackFinder/TripletTrackFinderConf.py'
p9
ssS'../../../InnerDetector/InDetRecAlgs/TripletTrackFinder/x86_64-slc6-gcc49-opt/libTripletTrackFinder.so'
p10
S'../../../../InstallArea/x86_64-slc6-gcc49-opt/lib/libTripletTrackFinder.so'
p11
sS'../../TripletTrackFinder/InnerDetector/InDetRecAlgs/TripletTrackFinder/genConf/TripletTrackFinder'
p12
(dp13
S'../../../TripletTrackFinder/InnerDetector/InDetRecAlgs/TripletTrackFinder/genConf/TripletTrackFinder/TripletTrackFinderConf.py'
p14
S'../../../../../InstallArea/python/TripletTrackFinder/TripletTrackFinderConf.py'
p15
ssS'../../../../../../../../../../cvmfs/atlas.cern.ch/repo/sw/software/x86_64-slc6-gcc49-opt/20.20.10/GAUDI/v26r2p3-lcg81f/GaudiPolicy/cmt/fragments/__init__.py'
p16
S'../../../../InstallArea/python/TripletTrackFinder/__init__.py'
p17
sS'../../../InnerDetector/InDetRecAlgs/TripletTrackFinder/x86_64-slc6-gcc49-opt/libTripletTrackFinder.so.debug'
p18
S'../../../../InstallArea/x86_64-slc6-gcc49-opt/lib/libTripletTrackFinder.so.debug'
p19
sS'../../../TripletTrackFinder/InnerDetector/InDetRecAlgs/TripletTrackFinder/x86_64-slc6-gcc49-opt/libTripletTrackFinder.so.debug'
p20
S'../../../../../InstallArea/x86_64-slc6-gcc49-opt/lib/libTripletTrackFinder.so.debug'
p21
ssb.