(i__main__
LogFile
p0
(dp1
S'_installed_files'
p2
(dp3
S'../../../InnerDetector/InDetDigitization/SiDigitization/x86_64-slc6-gcc49-opt/libSiDigitization.so.debug'
p4
S'../../../../InstallArea/x86_64-slc6-gcc49-opt/lib/libSiDigitization.so.debug'
p5
sS'../../../InnerDetector/InDetDigitization/SiDigitization/x86_64-slc6-gcc49-opt/libSiDigitization.so'
p6
S'../../../../InstallArea/x86_64-slc6-gcc49-opt/lib/libSiDigitization.so'
p7
ssb.