(i__main__
LogFile
p0
(dp1
S'_installed_files'
p2
(dp3
S'../../Simulation/G4Utilities/G4UserActions/genConf/G4UserActions'
p4
(dp5
S'../../../Simulation/G4Utilities/G4UserActions/genConf/G4UserActions/G4UserActionsConf.py'
p6
S'../../../../InstallArea/python/G4UserActions/G4UserActionsConf.py'
p7
ssS'../../../Simulation/G4Utilities/G4UserActions/x86_64-slc6-gcc49-opt/libG4UserActions.so.debug'
p8
S'../../../../InstallArea/x86_64-slc6-gcc49-opt/lib/libG4UserActions.so.debug'
p9
sS'../../../../../../../../../../../../cvmfs/atlas.cern.ch/repo/sw/software/x86_64-slc6-gcc49-opt/20.20.10/GAUDI/v26r2p3-lcg81f/GaudiPolicy/cmt/fragments/__init__.py'
p10
S'../../../../InstallArea/python/G4UserActions/__init__.py'
p11
sS'../../../Simulation/G4Utilities/G4UserActions/x86_64-slc6-gcc49-opt/libG4UserActions.so'
p12
S'../../../../InstallArea/x86_64-slc6-gcc49-opt/lib/libG4UserActions.so'
p13
sS'../../../../../../../../../../cvmfs/atlas.cern.ch/repo/sw/software/x86_64-slc6-gcc49-opt/20.20.10/GAUDI/v26r2p3-lcg81f/GaudiPolicy/cmt/fragments/__init__.py'
p14
S'../../../../InstallArea/python/G4UserActions/__init__.py'
p15
sS'../../../../../../../../../cvmfs/atlas.cern.ch/repo/sw/software/x86_64-slc6-gcc49-opt/20.20.10/GAUDI/v26r2p3-lcg81f/GaudiPolicy/cmt/fragments/__init__.py'
p16
S'../../../../InstallArea/python/G4UserActions/__init__.py'
p17
ssb.