(i__main__
LogFile
p0
(dp1
S'_installed_files'
p2
(dp3
S'../../../../../../../../../../../../cvmfs/atlas.cern.ch/repo/sw/software/x86_64-slc6-gcc49-opt/20.20.10/GAUDI/v26r2p3-lcg81f/GaudiPolicy/cmt/fragments/__init__.py'
p4
S'../../../../InstallArea/python/SCT_Digitization/__init__.py'
p5
sS'../../InnerDetector/InDetDigitization/SCT_Digitization/genConf/SCT_Digitization'
p6
(dp7
S'../../../InnerDetector/InDetDigitization/SCT_Digitization/genConf/SCT_Digitization/SCT_DigitizationConf.py'
p8
S'../../../../InstallArea/python/SCT_Digitization/SCT_DigitizationConf.py'
p9
ssS'../../../../../../../../../../cvmfs/atlas.cern.ch/repo/sw/software/x86_64-slc6-gcc49-opt/20.20.10/GAUDI/v26r2p3-lcg81f/GaudiPolicy/cmt/fragments/__init__.py'
p10
S'../../../../InstallArea/python/SCT_Digitization/__init__.py'
p11
sS'../../../InnerDetector/InDetDigitization/SCT_Digitization/x86_64-slc6-gcc49-opt/libSCT_Digitization.so'
p12
S'../../../../InstallArea/x86_64-slc6-gcc49-opt/lib/libSCT_Digitization.so'
p13
sS'../../../InnerDetector/InDetDigitization/SCT_Digitization/x86_64-slc6-gcc49-opt/libSCT_Digitization.so.debug'
p14
S'../../../../InstallArea/x86_64-slc6-gcc49-opt/lib/libSCT_Digitization.so.debug'
p15
sS'../../../../../../../../../cvmfs/atlas.cern.ch/repo/sw/software/x86_64-slc6-gcc49-opt/20.20.10/GAUDI/v26r2p3-lcg81f/GaudiPolicy/cmt/fragments/__init__.py'
p16
S'../../../../InstallArea/python/SCT_Digitization/__init__.py'
p17
ssb.