(i__main__
LogFile
p0
(dp1
S'_installed_files'
p2
(dp3
S'../../InnerDetector/InDetDetDescr/PixelCabling/genConf/PixelCabling'
p4
(dp5
S'../../../InnerDetector/InDetDetDescr/PixelCabling/genConf/PixelCabling/PixelCablingConf.py'
p6
S'../../../../InstallArea/python/PixelCabling/PixelCablingConf.py'
p7
ssS'../../../../../../../../../../../../cvmfs/atlas.cern.ch/repo/sw/software/x86_64-slc6-gcc49-opt/20.20.10/GAUDI/v26r2p3-lcg81f/GaudiPolicy/cmt/fragments/__init__.py'
p8
S'../../../../InstallArea/python/PixelCabling/__init__.py'
p9
sS'../../../../../../../../../../cvmfs/atlas.cern.ch/repo/sw/software/x86_64-slc6-gcc49-opt/20.20.10/GAUDI/v26r2p3-lcg81f/GaudiPolicy/cmt/fragments/__init__.py'
p10
S'../../../../InstallArea/python/PixelCabling/__init__.py'
p11
sS'../../../InnerDetector/InDetDetDescr/PixelCabling/x86_64-slc6-gcc49-opt/libPixelCabling.so.debug'
p12
S'../../../../InstallArea/x86_64-slc6-gcc49-opt/lib/libPixelCabling.so.debug'
p13
sS'../../../InnerDetector/InDetDetDescr/PixelCabling/x86_64-slc6-gcc49-opt/libPixelCabling.so'
p14
S'../../../../InstallArea/x86_64-slc6-gcc49-opt/lib/libPixelCabling.so'
p15
sS'../../../../../../../../../cvmfs/atlas.cern.ch/repo/sw/software/x86_64-slc6-gcc49-opt/20.20.10/GAUDI/v26r2p3-lcg81f/GaudiPolicy/cmt/fragments/__init__.py'
p16
S'../../../../InstallArea/python/PixelCabling/__init__.py'
p17
ssb.