(i__main__
LogFile
p0
(dp1
S'_installed_files'
p2
(dp3
S'../../../InnerDetector/InDetDetDescr/PixelCabling/x86_64-slc6-gcc49-opt/libPixelCabling.so.debug'
p4
S'../../../../InstallArea/x86_64-slc6-gcc49-opt/lib/libPixelCabling.so.debug'
p5
sS'../../../InnerDetector/InDetDetDescr/PixelCabling/x86_64-slc6-gcc49-opt/libPixelCabling.so'
p6
S'../../../../InstallArea/x86_64-slc6-gcc49-opt/lib/libPixelCabling.so'
p7
sS'../../../../../../../../../cvmfs/atlas.cern.ch/repo/sw/software/x86_64-slc6-gcc49-opt/20.20.10/GAUDI/v26r2p3-lcg81f/GaudiPolicy/cmt/fragments/__init__.py'
p8
S'../../../../InstallArea/python/PixelCabling/__init__.py'
p9
sS'../../InnerDetector/InDetDetDescr/PixelCabling/genConf/PixelCabling'
p10
(dp11
S'../../../InnerDetector/InDetDetDescr/PixelCabling/genConf/PixelCabling/PixelCablingConf.py'
p12
S'../../../../InstallArea/python/PixelCabling/PixelCablingConf.py'
p13
ssS'../../../../../../../../../../../../cvmfs/atlas.cern.ch/repo/sw/software/x86_64-slc6-gcc49-opt/20.20.10/GAUDI/v26r2p3-lcg81f/GaudiPolicy/cmt/fragments/__init__.py'
p14
S'../../../../InstallArea/python/PixelCabling/__init__.py'
p15
ssb.