(i__main__
LogFile
p0
(dp1
S'_installed_files'
p2
(dp3
S'../../../../../../../../../../cvmfs/atlas.cern.ch/repo/sw/software/x86_64-slc6-gcc49-opt/20.20.10/GAUDI/v26r2p3-lcg81f/GaudiPolicy/cmt/fragments/__init__.py'
p4
S'../../../../InstallArea/python/PixelDigitization/__init__.py'
p5
sS'../../../../../../../../../../../../cvmfs/atlas.cern.ch/repo/sw/software/x86_64-slc6-gcc49-opt/20.20.10/GAUDI/v26r2p3-lcg81f/GaudiPolicy/cmt/fragments/__init__.py'
p6
S'../../../../InstallArea/python/PixelDigitization/__init__.py'
p7
sS'../../InnerDetector/InDetDigitization/PixelDigitization/genConf/PixelDigitization'
p8
(dp9
S'../../../InnerDetector/InDetDigitization/PixelDigitization/genConf/PixelDigitization/PixelDigitizationConf.py'
p10
S'../../../../InstallArea/python/PixelDigitization/PixelDigitizationConf.py'
p11
ssS'../../../../../../../../../cvmfs/atlas.cern.ch/repo/sw/software/x86_64-slc6-gcc49-opt/20.20.10/GAUDI/v26r2p3-lcg81f/GaudiPolicy/cmt/fragments/__init__.py'
p12
S'../../../../InstallArea/python/PixelDigitization/__init__.py'
p13
ssb.