(i__main__
LogFile
p0
(dp1
S'_installed_files'
p2
(dp3
S'../../InnerDetector/InDetPerformance/SiHitAnalysis/genConf/SiHitAnalysis'
p4
(dp5
S'../../../InnerDetector/InDetPerformance/SiHitAnalysis/genConf/SiHitAnalysis/SiHitAnalysisConf.py'
p6
S'../../../../InstallArea/python/SiHitAnalysis/SiHitAnalysisConf.py'
p7
ssS'../../../InnerDetector/InDetPerformance/SiHitAnalysis/x86_64-slc6-gcc49-opt/libSiHitAnalysis.so.debug'
p8
S'../../../../InstallArea/x86_64-slc6-gcc49-opt/lib/libSiHitAnalysis.so.debug'
p9
sS'../../../InnerDetector/InDetPerformance/SiHitAnalysis/x86_64-slc6-gcc49-opt/libSiHitAnalysis.so'
p10
S'../../../../InstallArea/x86_64-slc6-gcc49-opt/lib/libSiHitAnalysis.so'
p11
sS'../../../../../../../../../../cvmfs/atlas.cern.ch/repo/sw/software/x86_64-slc6-gcc49-opt/20.20.10/GAUDI/v26r2p3-lcg81f/GaudiPolicy/cmt/fragments/__init__.py'
p12
S'../../../../InstallArea/python/SiHitAnalysis/__init__.py'
p13
ssb.