(i__main__
LogFile
p0
(dp1
S'_installed_files'
p2
(dp3
S'../../../InnerDetector/InDetDetDescr/InDetTrackingGeometry/x86_64-slc6-gcc49-opt/libInDetTrackingGeometry.so.debug'
p4
S'../../../../InstallArea/x86_64-slc6-gcc49-opt/lib/libInDetTrackingGeometry.so.debug'
p5
sS'../../InnerDetector/InDetDetDescr/InDetTrackingGeometry/genConf/InDetTrackingGeometry'
p6
(dp7
S'../../../InnerDetector/InDetDetDescr/InDetTrackingGeometry/genConf/InDetTrackingGeometry/InDetTrackingGeometryConf.py'
p8
S'../../../../InstallArea/python/InDetTrackingGeometry/InDetTrackingGeometryConf.py'
p9
ssS'../../../InnerDetector/InDetDetDescr/InDetTrackingGeometry/x86_64-slc6-gcc49-opt/libInDetTrackingGeometry.so'
p10
S'../../../../InstallArea/x86_64-slc6-gcc49-opt/lib/libInDetTrackingGeometry.so'
p11
sS'../../../../../../../../../../cvmfs/atlas.cern.ch/repo/sw/software/x86_64-slc6-gcc49-opt/20.20.10/GAUDI/v26r2p3-lcg81f/GaudiPolicy/cmt/fragments/__init__.py'
p12
S'../../../../InstallArea/python/InDetTrackingGeometry/__init__.py'
p13
ssb.